; Function Attrs: mustprogress uwtable
define void @_ZN6icu_7716SimpleDateFormat26parseAmbiguousDatesAsAfterEdR10UErrorCode(ptr noundef nonnull align 8 captures(none) dereferenceable(528) %0, double noundef %1, ptr noundef nonnull align 4 dereferenceable(4) %2) local_unnamed_addr #1 align 2 {
  %4 = load i32, ptr %2, align 4, !tbaa !13
  %5 = icmp slt i32 %4, 1
  br i1 %5, label %6, label %19

6:                                                ; preds = %3
  %7 = getelementptr inbounds nuw i8, ptr %0, i64 24
  %8 = load ptr, ptr %7, align 8, !tbaa !52
  %.not8 = icmp eq ptr %8, null
  br i1 %.not8, label %9, label %10

9:                                                ; preds = %6
  store i32 1, ptr %2, align 4, !tbaa !13
  br label %19

10:                                               ; preds = %6
  tail call void @_ZN6icu_778Calendar15setTimeInMillisEdR10UErrorCode(ptr noundef nonnull align 8 dereferenceable(192) %8, double noundef %1, ptr noundef nonnull align 4 dereferenceable(4) %2)
  %11 = load i32, ptr %2, align 4, !tbaa !13
  %12 = icmp sgt i32 %11, 0
  br i1 %12, label %19, label %13

13:                                               ; preds = %10
  %14 = getelementptr inbounds nuw i8, ptr %0, i64 512
  store i8 1, ptr %14, align 8, !tbaa !53
  %15 = getelementptr inbounds nuw i8, ptr %0, i64 480
  store double %1, ptr %15, align 8, !tbaa !54
  %16 = load ptr, ptr %7, align 8, !tbaa !52
  %17 = tail call noundef i32 @_ZNK6icu_778Calendar3getE19UCalendarDateFieldsR10UErrorCode(ptr noundef nonnull align 8 dereferenceable(192) %16, i32 noundef 1, ptr noundef nonnull align 4 dereferenceable(4) %2)
  %18 = getelementptr inbounds nuw i8, ptr %0, i64 492
  store i32 %17, ptr %18, align 4, !tbaa !55
  br label %19

19:                                               ; preds = %3, %13, %10, %9
  ret void
}